; Function Attrs: mustprogress nounwind uwtable
define hidden void @_ZN15G1CollectedHeap22retire_gc_alloc_regionEP12G1HeapRegionm16G1HeapRegionAttr(ptr noundef nonnull align 8 dereferenceable(1488) %0, ptr noundef %1, i64 noundef %2, i24 %3) local_unnamed_addr #0 align 2 {
  %.sroa.1.0.extract.shift = lshr i24 %3, 8
  %.sroa.1.0.extract.trunc = trunc i24 %.sroa.1.0.extract.shift to i8
  %5 = getelementptr inbounds i8, ptr %0, i64 656
  %6 = load i64, ptr %5, align 8
  %7 = add i64 %6, %2
  store i64 %7, ptr %5, align 8
  %8 = icmp eq i8 %.sroa.1.0.extract.trunc, 1
  br i1 %8, label %9, label %18

9:                                                ; preds = %4
  %10 = getelementptr inbounds i8, ptr %0, i64 168
  %11 = load ptr, ptr %10, align 8
  %.not.i.i.i = icmp eq ptr %11, null
  br i1 %.not.i.i.i, label %_ZN15G1CollectedHeap11old_set_addEP12G1HeapRegion.exit, label %12

12:                                               ; preds = %9
  %13 = load ptr, ptr %11, align 8
  %14 = load ptr, ptr %13, align 8
  tail call void %14(ptr noundef nonnull align 8 dereferenceable(8) %11) #23
  br label %_ZN15G1CollectedHeap11old_set_addEP12G1HeapRegion.exit

_ZN15G1CollectedHeap11old_set_addEP12G1HeapRegion.exit: ; preds = %9, %12
  %15 = getelementptr inbounds i8, ptr %0, i64 176
  %16 = load i32, ptr %15, align 8
  %17 = add i32 %16, 1
  store i32 %17, ptr %15, align 8
  br label %20

18:                                               ; preds = %4
  %19 = getelementptr inbounds i8, ptr %0, i64 1016
  tail call void @_ZN17G1SurvivorRegions14add_used_bytesEm(ptr noundef nonnull align 8 dereferenceable(32) %19, i64 noundef %2) #23
  br label %20

20:                                               ; preds = %18, %_ZN15G1CollectedHeap11old_set_addEP12G1HeapRegion.exit
  %21 = getelementptr inbounds i8, ptr %0, i64 970
  %22 = load volatile i8, ptr %21, align 2
  %23 = trunc i8 %22 to i1
  %24 = icmp ne i64 %2, 0
  %or.cond = and i1 %24, %23
  br i1 %or.cond, label %25, label %28

25:                                               ; preds = %20
  %26 = getelementptr inbounds i8, ptr %0, i64 1320
  %27 = load ptr, ptr %26, align 8
  tail call void @_ZN16G1ConcurrentMark15add_root_regionEP12G1HeapRegion(ptr noundef nonnull align 8 dereferenceable(1849) %27, ptr noundef %1) #23
  br label %28

28:                                               ; preds = %25, %20
  %29 = load volatile ptr, ptr getelementptr inbounds (i8, ptr @_ZN16LogTagSetMappingILN6LogTag4typeE49ELS1_128ELS1_0ELS1_0ELS1_0ELS1_0EE7_tagsetE, i64 48), align 8
  %.not.i.i = icmp eq ptr %29, null
  br i1 %.not.i.i, label %_ZN19G1HeapRegionPrinter6retireEP12G1HeapRegion.exit, label %30

30:                                               ; preds = %28
  %31 = getelementptr inbounds i8, ptr %1, i64 52
  %32 = tail call noundef ptr @_ZNK16G1HeapRegionType7get_strEv(ptr noundef nonnull align 4 dereferenceable(4) %31) #23
  %33 = load ptr, ptr %1, align 8
  %34 = ptrtoint ptr %33 to i64
  %35 = getelementptr inbounds i8, ptr %1, i64 16
  %36 = load volatile ptr, ptr %35, align 8
  %37 = ptrtoint ptr %36 to i64
  %38 = getelementptr inbounds i8, ptr %1, i64 8
  %39 = load ptr, ptr %38, align 8
  %40 = ptrtoint ptr %39 to i64
  tail call void (ptr, ...) @_ZN7LogImplILN6LogTag4typeE49ELS1_128ELS1_0ELS1_0ELS1_0ELS1_0EE5writeILN8LogLevel4typeE1EEEvPKcz(ptr noundef nonnull @.str.110, ptr noundef nonnull @.str.128, ptr noundef %32, i64 noundef %34, i64 noundef %37, i64 noundef %40)
  br label %_ZN19G1HeapRegionPrinter6retireEP12G1HeapRegion.exit

_ZN19G1HeapRegionPrinter6retireEP12G1HeapRegion.exit: ; preds = %28, %30
  ret void
}